ARM GAS  /tmp/ccr1gnyl.s 			page 1


   1              		.cpu cortex-m3
   2              		.arch armv7-m
   3              		.fpu softvfp
   4              		.eabi_attribute 20, 1
   5              		.eabi_attribute 21, 1
   6              		.eabi_attribute 23, 3
   7              		.eabi_attribute 24, 1
   8              		.eabi_attribute 25, 1
   9              		.eabi_attribute 26, 1
  10              		.eabi_attribute 30, 1
  11              		.eabi_attribute 34, 1
  12              		.eabi_attribute 18, 4
  13              		.file	"delay.c"
  14              		.text
  15              	.Ltext0:
  16              		.cfi_sections	.debug_frame
  17              		.file 1 "Core/Src/delay.c"
  18              		.section	.text.__delay_impl,"ax",%progbits
  19              		.align	1
  20              		.syntax unified
  21              		.thumb
  22              		.thumb_func
  24              	__delay_impl:
  25              	.LVL0:
  26              	.LFB66:
   1:Core/Src/delay.c **** #include"delay.h"
   2:Core/Src/delay.c **** 
   3:Core/Src/delay.c **** static uint32_t fac_us = 0;
   4:Core/Src/delay.c **** static uint32_t fac_ms = 0;
   5:Core/Src/delay.c **** 
   6:Core/Src/delay.c **** void delay_init()
   7:Core/Src/delay.c **** {
   8:Core/Src/delay.c ****     HAL_SYSTICK_CLKSourceConfig(SYSTICK_CLKSOURCE_HCLK_DIV8); // ÈÖçÁΩÆ‰∏∫Â§ñÈÉ®Êó∂ÈíüÊ∫êÔºåÈ¢ëÁéá‰
   9:Core/Src/delay.c ****     fac_us = SystemCoreClock / 8000000; 	// ÂΩìHCLK‰∏∫72MHzÊó∂Ôºåfac_us‰∏∫9ÔºåÂç≥Ë°®Á§∫9‰∏™Êó∂ÈíüÂë
  10:Core/Src/delay.c ****     fac_ms = fac_us * 1000;
  11:Core/Src/delay.c **** }
  12:Core/Src/delay.c **** 
  13:Core/Src/delay.c **** __INLINE static void __delay_impl(uint32_t fac)
  14:Core/Src/delay.c **** {
  27              		.loc 1 14 1 view -0
  28              		.cfi_startproc
  29              		@ args = 0, pretend = 0, frame = 0
  30              		@ frame_needed = 0, uses_anonymous_args = 0
  31              		@ link register save eliminated.
  32              		.loc 1 14 1 is_stmt 0 view .LVU1
  33 0000 30B4     		push	{r4, r5}
  34              	.LCFI0:
  35              		.cfi_def_cfa_offset 8
  36              		.cfi_offset 4, -8
  37              		.cfi_offset 5, -4
  15:Core/Src/delay.c ****     /* ËÆ∞ÂΩïÂØÑÂ≠òÂô®‰∏≠ÁöÑÊóßÂÄº */
  16:Core/Src/delay.c **** 	uint32_t oldLoad = SysTick->LOAD;
  38              		.loc 1 16 2 is_stmt 1 view .LVU2
  39              		.loc 1 16 11 is_stmt 0 view .LVU3
  40 0002 4FF0E023 		mov	r3, #-536813568
  41 0006 5D69     		ldr	r5, [r3, #20]
  42              	.LVL1:
ARM GAS  /tmp/ccr1gnyl.s 			page 2


  17:Core/Src/delay.c **** 	uint32_t oldVal = SysTick->VAL;
  43              		.loc 1 17 2 is_stmt 1 view .LVU4
  44              		.loc 1 17 11 is_stmt 0 view .LVU5
  45 0008 9C69     		ldr	r4, [r3, #24]
  46              	.LVL2:
  18:Core/Src/delay.c **** 	uint32_t oldCTRL = SysTick->CTRL;
  47              		.loc 1 18 2 is_stmt 1 view .LVU6
  48              		.loc 1 18 11 is_stmt 0 view .LVU7
  49 000a 1969     		ldr	r1, [r3, #16]
  50              	.LVL3:
  19:Core/Src/delay.c **** 
  20:Core/Src/delay.c ****     /* ÂºÄÂêØËÆ°Êó∂Âπ∂Á≠âÂæÖËÆ°Êó∂ÁªìÊùü */
  21:Core/Src/delay.c **** 	uint32_t temp;
  51              		.loc 1 21 2 is_stmt 1 view .LVU8
  22:Core/Src/delay.c **** 	SysTick->LOAD=fac; 							// LOADÊ≥®ÊÑè‰∏çË¶ÅË∂ÖËøá24bitÔºàÊç¢ÁÆóÊàêÊó∂Èó¥‰∏∫1864msÔºâ
  52              		.loc 1 22 2 view .LVU9
  53              		.loc 1 22 15 is_stmt 0 view .LVU10
  54 000c 5861     		str	r0, [r3, #20]
  23:Core/Src/delay.c **** 	SysTick->VAL=0x00;        					// VAL
  55              		.loc 1 23 2 is_stmt 1 view .LVU11
  56              		.loc 1 23 14 is_stmt 0 view .LVU12
  57 000e 0022     		movs	r2, #0
  58 0010 9A61     		str	r2, [r3, #24]
  24:Core/Src/delay.c **** 	SysTick->CTRL|=SysTick_CTRL_ENABLE_Msk ;	// CTRLÂºÄÂßãËÆ°Êó∂	  
  59              		.loc 1 24 2 is_stmt 1 view .LVU13
  60              		.loc 1 24 9 is_stmt 0 view .LVU14
  61 0012 1A69     		ldr	r2, [r3, #16]
  62              		.loc 1 24 15 view .LVU15
  63 0014 42F00102 		orr	r2, r2, #1
  64 0018 1A61     		str	r2, [r3, #16]
  65              	.L2:
  25:Core/Src/delay.c **** 	do{
  66              		.loc 1 25 2 is_stmt 1 discriminator 1 view .LVU16
  26:Core/Src/delay.c **** 		temp=SysTick->CTRL;
  67              		.loc 1 26 3 discriminator 1 view .LVU17
  68              		.loc 1 26 7 is_stmt 0 discriminator 1 view .LVU18
  69 001a 4FF0E023 		mov	r3, #-536813568
  70 001e 1B69     		ldr	r3, [r3, #16]
  71              	.LVL4:
  27:Core/Src/delay.c **** 	}while((temp&0x01)&&!(temp&(1<<16)));		// Âà§Êñ≠SysTick->CTRL->COUNTFLAGÊ†áÂøóÊòØÂê¶‰∏∫1ÔºåÂπ∂‰∏îË
  72              		.loc 1 27 20 is_stmt 1 discriminator 1 view .LVU19
  73 0020 03F00113 		and	r3, r3, #65537
  74              	.LVL5:
  75              		.loc 1 27 20 is_stmt 0 discriminator 1 view .LVU20
  76 0024 012B     		cmp	r3, #1
  77 0026 F8D0     		beq	.L2
  28:Core/Src/delay.c **** 
  29:Core/Src/delay.c **** 	/* ÂÖ≥Èó≠Êú¨Ê¨°ËÆ°Êó∂ */
  30:Core/Src/delay.c **** 	SysTick->CTRL&=~SysTick_CTRL_ENABLE_Msk;	
  78              		.loc 1 30 2 is_stmt 1 view .LVU21
  79              		.loc 1 30 9 is_stmt 0 view .LVU22
  80 0028 4FF0E023 		mov	r3, #-536813568
  81 002c 1A69     		ldr	r2, [r3, #16]
  82              		.loc 1 30 15 view .LVU23
  83 002e 22F00102 		bic	r2, r2, #1
  84 0032 1A61     		str	r2, [r3, #16]
  31:Core/Src/delay.c **** 	SysTick->VAL =0X00;
ARM GAS  /tmp/ccr1gnyl.s 			page 3


  85              		.loc 1 31 2 is_stmt 1 view .LVU24
  86              		.loc 1 31 15 is_stmt 0 view .LVU25
  87 0034 0022     		movs	r2, #0
  88 0036 9A61     		str	r2, [r3, #24]
  32:Core/Src/delay.c **** 
  33:Core/Src/delay.c **** 	/* ÊÅ¢Â§ç‰∏äÊ¨°ËÆ°Êó∂ */
  34:Core/Src/delay.c **** 	SysTick->LOAD = oldLoad;
  89              		.loc 1 34 2 is_stmt 1 view .LVU26
  90              		.loc 1 34 16 is_stmt 0 view .LVU27
  91 0038 5D61     		str	r5, [r3, #20]
  35:Core/Src/delay.c **** 	SysTick->VAL = oldVal;
  92              		.loc 1 35 2 is_stmt 1 view .LVU28
  93              		.loc 1 35 15 is_stmt 0 view .LVU29
  94 003a 9C61     		str	r4, [r3, #24]
  36:Core/Src/delay.c **** 	SysTick->CTRL = oldCTRL; 
  95              		.loc 1 36 2 is_stmt 1 view .LVU30
  96              		.loc 1 36 16 is_stmt 0 view .LVU31
  97 003c 1961     		str	r1, [r3, #16]
  37:Core/Src/delay.c **** }
  98              		.loc 1 37 1 view .LVU32
  99 003e 30BC     		pop	{r4, r5}
 100              	.LCFI1:
 101              		.cfi_restore 5
 102              		.cfi_restore 4
 103              		.cfi_def_cfa_offset 0
 104              	.LVL6:
 105              		.loc 1 37 1 view .LVU33
 106 0040 7047     		bx	lr
 107              		.cfi_endproc
 108              	.LFE66:
 110              		.section	.text.delay_init,"ax",%progbits
 111              		.align	1
 112              		.global	delay_init
 113              		.syntax unified
 114              		.thumb
 115              		.thumb_func
 117              	delay_init:
 118              	.LFB65:
   7:Core/Src/delay.c ****     HAL_SYSTICK_CLKSourceConfig(SYSTICK_CLKSOURCE_HCLK_DIV8); // ÈÖçÁΩÆ‰∏∫Â§ñÈÉ®Êó∂ÈíüÊ∫êÔºåÈ¢ëÁéá‰
 119              		.loc 1 7 1 is_stmt 1 view -0
 120              		.cfi_startproc
 121              		@ args = 0, pretend = 0, frame = 0
 122              		@ frame_needed = 0, uses_anonymous_args = 0
 123 0000 08B5     		push	{r3, lr}
 124              	.LCFI2:
 125              		.cfi_def_cfa_offset 8
 126              		.cfi_offset 3, -8
 127              		.cfi_offset 14, -4
   8:Core/Src/delay.c ****     fac_us = SystemCoreClock / 8000000; 	// ÂΩìHCLK‰∏∫72MHzÊó∂Ôºåfac_us‰∏∫9ÔºåÂç≥Ë°®Á§∫9‰∏™Êó∂ÈíüÂë
 128              		.loc 1 8 5 view .LVU35
 129 0002 0020     		movs	r0, #0
 130 0004 FFF7FEFF 		bl	HAL_SYSTICK_CLKSourceConfig
 131              	.LVL7:
   9:Core/Src/delay.c ****     fac_ms = fac_us * 1000;
 132              		.loc 1 9 5 view .LVU36
   9:Core/Src/delay.c ****     fac_ms = fac_us * 1000;
 133              		.loc 1 9 30 is_stmt 0 view .LVU37
ARM GAS  /tmp/ccr1gnyl.s 			page 4


 134 0008 074B     		ldr	r3, .L6
 135 000a 1B68     		ldr	r3, [r3]
 136 000c 074A     		ldr	r2, .L6+4
 137 000e A2FB0323 		umull	r2, r3, r2, r3
 138 0012 5B0D     		lsrs	r3, r3, #21
   9:Core/Src/delay.c ****     fac_ms = fac_us * 1000;
 139              		.loc 1 9 12 view .LVU38
 140 0014 064A     		ldr	r2, .L6+8
 141 0016 1360     		str	r3, [r2]
  10:Core/Src/delay.c **** }
 142              		.loc 1 10 5 is_stmt 1 view .LVU39
  10:Core/Src/delay.c **** }
 143              		.loc 1 10 21 is_stmt 0 view .LVU40
 144 0018 4FF47A72 		mov	r2, #1000
 145 001c 02FB03F3 		mul	r3, r2, r3
  10:Core/Src/delay.c **** }
 146              		.loc 1 10 12 view .LVU41
 147 0020 044A     		ldr	r2, .L6+12
 148 0022 1360     		str	r3, [r2]
  11:Core/Src/delay.c **** 
 149              		.loc 1 11 1 view .LVU42
 150 0024 08BD     		pop	{r3, pc}
 151              	.L7:
 152 0026 00BF     		.align	2
 153              	.L6:
 154 0028 00000000 		.word	SystemCoreClock
 155 002c 83DE1B43 		.word	1125899907
 156 0030 00000000 		.word	fac_us
 157 0034 00000000 		.word	fac_ms
 158              		.cfi_endproc
 159              	.LFE65:
 161              		.section	.text.delay_us,"ax",%progbits
 162              		.align	1
 163              		.global	delay_us
 164              		.syntax unified
 165              		.thumb
 166              		.thumb_func
 168              	delay_us:
 169              	.LVL8:
 170              	.LFB67:
  38:Core/Src/delay.c **** 
  39:Core/Src/delay.c **** void delay_us(uint32_t nus)
  40:Core/Src/delay.c **** {		
 171              		.loc 1 40 1 is_stmt 1 view -0
 172              		.cfi_startproc
 173              		@ args = 0, pretend = 0, frame = 0
 174              		@ frame_needed = 0, uses_anonymous_args = 0
 175              		.loc 1 40 1 is_stmt 0 view .LVU44
 176 0000 08B5     		push	{r3, lr}
 177              	.LCFI3:
 178              		.cfi_def_cfa_offset 8
 179              		.cfi_offset 3, -8
 180              		.cfi_offset 14, -4
  41:Core/Src/delay.c **** 	__delay_impl(nus * fac_us);				 
 181              		.loc 1 41 2 is_stmt 1 view .LVU45
 182 0002 034B     		ldr	r3, .L10
 183 0004 1B68     		ldr	r3, [r3]
ARM GAS  /tmp/ccr1gnyl.s 			page 5


 184 0006 03FB00F0 		mul	r0, r3, r0
 185              	.LVL9:
 186              		.loc 1 41 2 is_stmt 0 view .LVU46
 187 000a FFF7FEFF 		bl	__delay_impl
 188              	.LVL10:
  42:Core/Src/delay.c **** }
 189              		.loc 1 42 1 view .LVU47
 190 000e 08BD     		pop	{r3, pc}
 191              	.L11:
 192              		.align	2
 193              	.L10:
 194 0010 00000000 		.word	fac_us
 195              		.cfi_endproc
 196              	.LFE67:
 198              		.section	.text.delay_ms,"ax",%progbits
 199              		.align	1
 200              		.global	delay_ms
 201              		.syntax unified
 202              		.thumb
 203              		.thumb_func
 205              	delay_ms:
 206              	.LVL11:
 207              	.LFB68:
  43:Core/Src/delay.c **** 
  44:Core/Src/delay.c **** 
  45:Core/Src/delay.c **** void delay_ms(uint32_t nms)
  46:Core/Src/delay.c **** {	 		  	  
 208              		.loc 1 46 1 is_stmt 1 view -0
 209              		.cfi_startproc
 210              		@ args = 0, pretend = 0, frame = 0
 211              		@ frame_needed = 0, uses_anonymous_args = 0
 212              		.loc 1 46 1 is_stmt 0 view .LVU49
 213 0000 08B5     		push	{r3, lr}
 214              	.LCFI4:
 215              		.cfi_def_cfa_offset 8
 216              		.cfi_offset 3, -8
 217              		.cfi_offset 14, -4
  47:Core/Src/delay.c **** 	__delay_impl(nms * fac_ms);				 					  	    
 218              		.loc 1 47 2 is_stmt 1 view .LVU50
 219 0002 034B     		ldr	r3, .L14
 220 0004 1B68     		ldr	r3, [r3]
 221 0006 03FB00F0 		mul	r0, r3, r0
 222              	.LVL12:
 223              		.loc 1 47 2 is_stmt 0 view .LVU51
 224 000a FFF7FEFF 		bl	__delay_impl
 225              	.LVL13:
  48:Core/Src/delay.c **** }
 226              		.loc 1 48 1 view .LVU52
 227 000e 08BD     		pop	{r3, pc}
 228              	.L15:
 229              		.align	2
 230              	.L14:
 231 0010 00000000 		.word	fac_ms
 232              		.cfi_endproc
 233              	.LFE68:
 235              		.section	.text.delay_s,"ax",%progbits
 236              		.align	1
ARM GAS  /tmp/ccr1gnyl.s 			page 6


 237              		.global	delay_s
 238              		.syntax unified
 239              		.thumb
 240              		.thumb_func
 242              	delay_s:
 243              	.LVL14:
 244              	.LFB69:
  49:Core/Src/delay.c **** 
  50:Core/Src/delay.c **** void delay_s(uint32_t s){
 245              		.loc 1 50 25 is_stmt 1 view -0
 246              		.cfi_startproc
 247              		@ args = 0, pretend = 0, frame = 0
 248              		@ frame_needed = 0, uses_anonymous_args = 0
 249              		.loc 1 50 25 is_stmt 0 view .LVU54
 250 0000 38B5     		push	{r3, r4, r5, lr}
 251              	.LCFI5:
 252              		.cfi_def_cfa_offset 16
 253              		.cfi_offset 3, -16
 254              		.cfi_offset 4, -12
 255              		.cfi_offset 5, -8
 256              		.cfi_offset 14, -4
 257 0002 0546     		mov	r5, r0
  51:Core/Src/delay.c **** 	for(int i = 0; i < s; ++i){
 258              		.loc 1 51 2 is_stmt 1 view .LVU55
 259              	.LBB2:
 260              		.loc 1 51 6 view .LVU56
 261              	.LVL15:
 262              		.loc 1 51 10 is_stmt 0 view .LVU57
 263 0004 0024     		movs	r4, #0
 264              		.loc 1 51 2 view .LVU58
 265 0006 04E0     		b	.L17
 266              	.LVL16:
 267              	.L18:
  52:Core/Src/delay.c **** 		delay_ms(1000);
 268              		.loc 1 52 3 is_stmt 1 discriminator 3 view .LVU59
 269 0008 4FF47A70 		mov	r0, #1000
 270 000c FFF7FEFF 		bl	delay_ms
 271              	.LVL17:
  51:Core/Src/delay.c **** 	for(int i = 0; i < s; ++i){
 272              		.loc 1 51 24 discriminator 3 view .LVU60
 273 0010 0134     		adds	r4, r4, #1
 274              	.LVL18:
 275              	.L17:
  51:Core/Src/delay.c **** 	for(int i = 0; i < s; ++i){
 276              		.loc 1 51 19 discriminator 1 view .LVU61
 277 0012 AC42     		cmp	r4, r5
 278 0014 F8D3     		bcc	.L18
 279              	.LBE2:
  53:Core/Src/delay.c **** 	}
  54:Core/Src/delay.c **** }...
 280              		.loc 1 54 1 is_stmt 0 view .LVU62
 281 0016 38BD     		pop	{r3, r4, r5, pc}
 282              		.loc 1 54 1 view .LVU63
 283              		.cfi_endproc
 284              	.LFE69:
 286              		.section	.bss.fac_ms,"aw",%nobits
 287              		.align	2
ARM GAS  /tmp/ccr1gnyl.s 			page 7


 290              	fac_ms:
 291 0000 00000000 		.space	4
 292              		.section	.bss.fac_us,"aw",%nobits
 293              		.align	2
 296              	fac_us:
 297 0000 00000000 		.space	4
 298              		.text
 299              	.Letext0:
 300              		.file 2 "/home/tanjie/EmbeddedLibrary/arm-gnu-toolchain-12.2.rel1-x86_64-arm-none-eabi/arm-none-ea
 301              		.file 3 "/home/tanjie/EmbeddedLibrary/arm-gnu-toolchain-12.2.rel1-x86_64-arm-none-eabi/arm-none-ea
 302              		.file 4 "Drivers/CMSIS/Include/core_cm3.h"
 303              		.file 5 "Drivers/CMSIS/Device/ST/STM32F1xx/Include/system_stm32f1xx.h"
 304              		.file 6 "Drivers/STM32F1xx_HAL_Driver/Inc/stm32f1xx_hal_cortex.h"
ARM GAS  /tmp/ccr1gnyl.s 			page 8

